; ModuleID = '42/735.c'
source_filename = "42/735.c"
target datalayout = "e-m:e-p270:32:32-p271:32:32-p272:64:64-i64:64-f80:128-n8:16:32:64-S128"
target triple = "x86_64-pc-linux-gnu"

@.str = private unnamed_addr constant [3 x i8] c"%d\00", align 1
@.str.1 = private unnamed_addr constant [4 x i8] c"%d \00", align 1

; Function Attrs: noinline nounwind uwtable
define dso_local void @main() #0 {
  %1 = alloca [100000 x i32], align 16
  %2 = alloca i32*, align 8
  %3 = alloca i32, align 4
  %4 = alloca i32, align 4
  %5 = alloca i32, align 4
  %6 = alloca i32, align 4
  %7 = getelementptr inbounds [100000 x i32], [100000 x i32]* %1, i64 0, i64 0
  store i32* %7, i32** %2, align 8
  %8 = call i32 (i8*, ...) @__isoc99_scanf(i8* getelementptr inbounds ([3 x i8], [3 x i8]* @.str, i64 0, i64 0), i32* %3)
  store i32 0, i32* %5, align 4
  br label %9

9:                                                ; preds = %19, %0
  %10 = load i32, i32* %5, align 4
  %11 = load i32, i32* %3, align 4
  %12 = icmp slt i32 %10, %11
  br i1 %12, label %13, label %22

13:                                               ; preds = %9
  %14 = load i32*, i32** %2, align 8
  %15 = load i32, i32* %5, align 4
  %16 = sext i32 %15 to i64
  %17 = getelementptr inbounds i32, i32* %14, i64 %16
  %18 = call i32 (i8*, ...) @__isoc99_scanf(i8* getelementptr inbounds ([3 x i8], [3 x i8]* @.str, i64 0, i64 0), i32* %17)
  br label %19

19:                                               ; preds = %13
  %20 = load i32, i32* %5, align 4
  %21 = add nsw i32 %20, 1
  store i32 %21, i32* %5, align 4
  br label %9

22:                                               ; preds = %9
  %23 = call i32 (i8*, ...) @__isoc99_scanf(i8* getelementptr inbounds ([3 x i8], [3 x i8]* @.str, i64 0, i64 0), i32* %4)
  %24 = load i32*, i32** %2, align 8
  %25 = load i32, i32* %3, align 4
  %26 = load i32, i32* %4, align 4
  %27 = call i32 @del(i32* %24, i32 %25, i32 %26)
  store i32 %27, i32* %6, align 4
  store i32 0, i32* %5, align 4
  br label %28

28:                                               ; preds = %42, %22
  %29 = load i32, i32* %5, align 4
  %30 = load i32, i32* %3, align 4
  %31 = load i32, i32* %6, align 4
  %32 = sub nsw i32 %30, %31
  %33 = sub nsw i32 %32, 1
  %34 = icmp slt i32 %29, %33
  br i1 %34, label %35, label %45

35:                                               ; preds = %28
  %36 = load i32*, i32** %2, align 8
  %37 = load i32, i32* %5, align 4
  %38 = sext i32 %37 to i64
  %39 = getelementptr inbounds i32, i32* %36, i64 %38
  %40 = load i32, i32* %39, align 4
  %41 = call i32 (i8*, ...) @printf(i8* getelementptr inbounds ([4 x i8], [4 x i8]* @.str.1, i64 0, i64 0), i32 %40)
  br label %42

42:                                               ; preds = %35
  %43 = load i32, i32* %5, align 4
  %44 = add nsw i32 %43, 1
  store i32 %44, i32* %5, align 4
  br label %28

45:                                               ; preds = %28
  %46 = load i32*, i32** %2, align 8
  %47 = load i32, i32* %3, align 4
  %48 = sext i32 %47 to i64
  %49 = getelementptr inbounds i32, i32* %46, i64 %48
  %50 = load i32, i32* %6, align 4
  %51 = sext i32 %50 to i64
  %52 = sub i64 0, %51
  %53 = getelementptr inbounds i32, i32* %49, i64 %52
  %54 = getelementptr inbounds i32, i32* %53, i64 -1
  %55 = load i32, i32* %54, align 4
  %56 = call i32 (i8*, ...) @printf(i8* getelementptr inbounds ([3 x i8], [3 x i8]* @.str, i64 0, i64 0), i32 %55)
  ret void
}

declare dso_local i32 @__isoc99_scanf(i8*, ...) #1

; Function Attrs: noinline nounwind uwtable
define dso_local i32 @del(i32* %0, i32 %1, i32 %2) #0 {
  %4 = alloca i32*, align 8
  %5 = alloca i32, align 4
  %6 = alloca i32, align 4
  %7 = alloca i32, align 4
  %8 = alloca i32, align 4
  %9 = alloca i32, align 4
  store i32* %0, i32** %4, align 8
  store i32 %1, i32* %5, align 4
  store i32 %2, i32* %6, align 4
  store i32 0, i32* %9, align 4
  store i32 0, i32* %7, align 4
  br label %10

10:                                               ; preds = %50, %3
  %11 = load i32, i32* %7, align 4
  %12 = load i32, i32* %5, align 4
  %13 = icmp slt i32 %11, %12
  br i1 %13, label %14, label %53

14:                                               ; preds = %10
  %15 = load i32*, i32** %4, align 8
  %16 = load i32, i32* %7, align 4
  %17 = sext i32 %16 to i64
  %18 = getelementptr inbounds i32, i32* %15, i64 %17
  %19 = load i32, i32* %18, align 4
  %20 = load i32, i32* %6, align 4
  %21 = icmp eq i32 %19, %20
  br i1 %21, label %22, label %49

22:                                               ; preds = %14
  %23 = load i32, i32* %7, align 4
  store i32 %23, i32* %8, align 4
  br label %24

24:                                               ; preds = %41, %22
  %25 = load i32, i32* %8, align 4
  %26 = load i32, i32* %5, align 4
  %27 = load i32, i32* %9, align 4
  %28 = sub nsw i32 %26, %27
  %29 = icmp slt i32 %25, %28
  br i1 %29, label %30, label %44

30:                                               ; preds = %24
  %31 = load i32*, i32** %4, align 8
  %32 = load i32, i32* %8, align 4
  %33 = sext i32 %32 to i64
  %34 = getelementptr inbounds i32, i32* %31, i64 %33
  %35 = getelementptr inbounds i32, i32* %34, i64 1
  %36 = load i32, i32* %35, align 4
  %37 = load i32*, i32** %4, align 8
  %38 = load i32, i32* %8, align 4
  %39 = sext i32 %38 to i64
  %40 = getelementptr inbounds i32, i32* %37, i64 %39
  store i32 %36, i32* %40, align 4
  br label %41

41:                                               ; preds = %30
  %42 = load i32, i32* %8, align 4
  %43 = add nsw i32 %42, 1
  store i32 %43, i32* %8, align 4
  br label %24

44:                                               ; preds = %24
  %45 = load i32, i32* %9, align 4
  %46 = add nsw i32 %45, 1
  store i32 %46, i32* %9, align 4
  %47 = load i32, i32* %7, align 4
  %48 = add nsw i32 %47, -1
  store i32 %48, i32* %7, align 4
  br label %49

49:                                               ; preds = %44, %14
  br label %50

50:                                               ; preds = %49
  %51 = load i32, i32* %7, align 4
  %52 = add nsw i32 %51, 1
  store i32 %52, i32* %7, align 4
  br label %10

53:                                               ; preds = %10
  %54 = load i32, i32* %9, align 4
  ret i32 %54
}

declare dso_local i32 @printf(i8*, ...) #1


!llvm.module.flags = !{!0}
!llvm.ident = !{!1}

!0 = !{i32 1, !"wchar_size", i32 4}
!1 = !{!"clang version 10.0.0-4ubuntu1 "}
